; Function Attrs: nounwind uwtable
define hidden void @zim_MultipleIterator_containsIterator(ptr nocapture noundef readonly %0, ptr nocapture noundef writeonly %1) #0 {
  %3 = alloca ptr, align 8
  %4 = getelementptr inbounds i8, ptr %0, i64 32
  %5 = load ptr, ptr %4, align 8
  %6 = getelementptr inbounds i8, ptr %0, i64 44
  %7 = load i32, ptr %6, align 4
  %8 = load ptr, ptr @zend_ce_iterator, align 8
  %9 = call i32 (i32, ptr, ...) @zend_parse_parameters(i32 noundef %7, ptr noundef nonnull @.str.1, ptr noundef nonnull %3, ptr noundef %8) #10
  %10 = icmp eq i32 %9, -1
  br i1 %10, label %11, label %14

11:                                               ; preds = %2
  %12 = load ptr, ptr getelementptr inbounds (%struct._zend_executor_globals, ptr @executor_globals, i64 0, i32 50), align 8
  %13 = icmp ne ptr %12, null
  call void @llvm.assume(i1 %13)
  br label %21

14:                                               ; preds = %2
  %15 = getelementptr inbounds i8, ptr %5, i64 -88
  %16 = load ptr, ptr %3, align 8
  %17 = load ptr, ptr %16, align 8
  %18 = call fastcc zeroext i1 @spl_object_storage_contains(ptr noundef nonnull %15, ptr noundef %17)
  %19 = select i1 %18, i32 3, i32 2
  %20 = getelementptr inbounds i8, ptr %1, i64 8
  store i32 %19, ptr %20, align 8
  br label %21

21:                                               ; preds = %14, %11
  ret void
}